target datalayout = "e-m:e-p270:32:32-p271:32:32-p272:64:64-i64:64-i128:128-f80:128-n8:16:32:64-S128"
target triple = "x86_64-pc-linux-gnu"

%class.btCollisionShape = type { ptr, i32, ptr, i32, i32 }
%class.btVector3 = type { [4 x float] }
%class.btConvexInternalShape = type { %class.btConvexShape, %class.btVector3, %class.btVector3, float, float }
%class.btConvexShape = type { %class.btCollisionShape }

; Function Attrs: inlinehint mustprogress nounwind uwtable
define linkonce_odr dso_local noundef nonnull align 4 dereferenceable(4) ptr @_ZNK9btVector34getXEv(ptr noundef nonnull align 4 dereferenceable(16) %0) #7 comdat align 2 {
  %2 = alloca ptr, align 8
  store ptr %0, ptr %2, align 8, !tbaa !25
  %3 = load ptr, ptr %2, align 8
  %4 = getelementptr inbounds nuw %class.btVector3, ptr %3, i32 0, i32 0
  %5 = getelementptr inbounds [4 x float], ptr %4, i64 0, i64 0
  ret ptr %5
}

; Function Attrs: mustprogress nounwind uwtable
define linkonce_odr dso_local noundef float @_ZNK21btConvexInternalShape11getMarginNVEv(ptr noundef nonnull align 8 dereferenceable(72) %0) #1 comdat align 2 {
  %2 = alloca ptr, align 8
  store ptr %0, ptr %2, align 8, !tbaa !46
  %3 = load ptr, ptr %2, align 8
  %4 = getelementptr inbounds nuw %class.btConvexInternalShape, ptr %3, i32 0, i32 3
  %5 = load float, ptr %4, align 8, !tbaa !70
  ret float %5
}

; Function Attrs: mustprogress nounwind uwtable
define linkonce_odr dso_local noundef float @_ZNK13btSphereShape9getRadiusEv(ptr noundef nonnull align 8 dereferenceable(72) %0) #1 comdat align 2 {
  %2 = alloca ptr, align 8
  store ptr %0, ptr %2, align 8, !tbaa !64
  %3 = load ptr, ptr %2, align 8
  %4 = getelementptr inbounds nuw %class.btConvexInternalShape, ptr %3, i32 0, i32 2
  %5 = call noundef nonnull align 4 dereferenceable(4) ptr @_ZNK9btVector34getXEv(ptr noundef nonnull align 4 dereferenceable(16) %4)
  %6 = load float, ptr %5, align 4, !tbaa !29
  %7 = getelementptr inbounds nuw %class.btConvexInternalShape, ptr %3, i32 0, i32 1
  %8 = call noundef nonnull align 4 dereferenceable(4) ptr @_ZNK9btVector34getXEv(ptr noundef nonnull align 4 dereferenceable(16) %7)
  %9 = load float, ptr %8, align 4, !tbaa !29
  %10 = fmul float %6, %9
  ret float %10
}

; Function Attrs: mustprogress uwtable
define dso_local noundef float @_ZNK13btConvexShape19getMarginNonVirtualEv(ptr noundef nonnull align 8 dereferenceable(32) %0) #2 align 2 {
  %2 = alloca float, align 4
  %3 = alloca ptr, align 8
  %4 = alloca ptr, align 8
  %5 = alloca ptr, align 8
  %6 = alloca ptr, align 8
  %7 = alloca ptr, align 8
  %8 = alloca ptr, align 8
  %9 = alloca ptr, align 8
  %10 = alloca ptr, align 8
  store ptr %0, ptr %3, align 8, !tbaa !12
  %11 = load ptr, ptr %3, align 8
  %12 = getelementptr inbounds nuw %class.btCollisionShape, ptr %11, i32 0, i32 1
  %13 = load i32, ptr %12, align 8, !tbaa !18
  switch i32 %13, label %35 [
    i32 8, label %14
    i32 0, label %17
    i32 1, label %20
    i32 13, label %23
    i32 11, label %26
    i32 10, label %29
    i32 5, label %32
    i32 4, label %32
  ]

14:                                               ; preds = %1
  call void @llvm.lifetime.start.p0(i64 8, ptr %4) #13
  store ptr %11, ptr %4, align 8, !tbaa !64
  %15 = load ptr, ptr %4, align 8, !tbaa !64
  %16 = call noundef float @_ZNK13btSphereShape9getRadiusEv(ptr noundef nonnull align 8 dereferenceable(72) %15)
  store float %16, ptr %2, align 4
  call void @llvm.lifetime.end.p0(i64 8, ptr %4) #13
  br label %40

17:                                               ; preds = %1
  call void @llvm.lifetime.start.p0(i64 8, ptr %5) #13
  store ptr %11, ptr %5, align 8, !tbaa !34
  %18 = load ptr, ptr %5, align 8, !tbaa !34
  %19 = call noundef float @_ZNK21btConvexInternalShape11getMarginNVEv(ptr noundef nonnull align 8 dereferenceable(72) %18)
  store float %19, ptr %2, align 4
  call void @llvm.lifetime.end.p0(i64 8, ptr %5) #13
  br label %40

20:                                               ; preds = %1
  call void @llvm.lifetime.start.p0(i64 8, ptr %6) #13
  store ptr %11, ptr %6, align 8, !tbaa !36
  %21 = load ptr, ptr %6, align 8, !tbaa !36
  %22 = call noundef float @_ZNK21btConvexInternalShape11getMarginNVEv(ptr noundef nonnull align 8 dereferenceable(72) %21)
  store float %22, ptr %2, align 4
  call void @llvm.lifetime.end.p0(i64 8, ptr %6) #13
  br label %40

23:                                               ; preds = %1
  call void @llvm.lifetime.start.p0(i64 8, ptr %7) #13
  store ptr %11, ptr %7, align 8, !tbaa !38
  %24 = load ptr, ptr %7, align 8, !tbaa !38
  %25 = call noundef float @_ZNK21btConvexInternalShape11getMarginNVEv(ptr noundef nonnull align 8 dereferenceable(72) %24)
  store float %25, ptr %2, align 4
  call void @llvm.lifetime.end.p0(i64 8, ptr %7) #13
  br label %40

26:                                               ; preds = %1
  call void @llvm.lifetime.start.p0(i64 8, ptr %8) #13
  store ptr %11, ptr %8, align 8, !tbaa !66
  %27 = load ptr, ptr %8, align 8, !tbaa !66
  %28 = call noundef float @_ZNK21btConvexInternalShape11getMarginNVEv(ptr noundef nonnull align 8 dereferenceable(72) %27)
  store float %28, ptr %2, align 4
  call void @llvm.lifetime.end.p0(i64 8, ptr %8) #13
  br label %40

29:                                               ; preds = %1
  call void @llvm.lifetime.start.p0(i64 8, ptr %9) #13
  store ptr %11, ptr %9, align 8, !tbaa !40
  %30 = load ptr, ptr %9, align 8, !tbaa !40
  %31 = call noundef float @_ZNK21btConvexInternalShape11getMarginNVEv(ptr noundef nonnull align 8 dereferenceable(72) %30)
  store float %31, ptr %2, align 4
  call void @llvm.lifetime.end.p0(i64 8, ptr %9) #13
  br label %40

32:                                               ; preds = %1, %1
  call void @llvm.lifetime.start.p0(i64 8, ptr %10) #13
  store ptr %11, ptr %10, align 8, !tbaa !68
  %33 = load ptr, ptr %10, align 8, !tbaa !68
  %34 = call noundef float @_ZNK21btConvexInternalShape11getMarginNVEv(ptr noundef nonnull align 8 dereferenceable(72) %33)
  store float %34, ptr %2, align 4
  call void @llvm.lifetime.end.p0(i64 8, ptr %10) #13
  br label %40

35:                                               ; preds = %1
  %36 = load ptr, ptr %11, align 8, !tbaa !14
  %37 = getelementptr inbounds ptr, ptr %36, i64 12
  %38 = load ptr, ptr %37, align 8
  %39 = call noundef float %38(ptr noundef nonnull align 8 dereferenceable(32) %11)
  store float %39, ptr %2, align 4
  br label %40

40:                                               ; preds = %35, %32, %29, %26, %23, %20, %17, %14
  %41 = load float, ptr %2, align 4
  ret float %41
}