; Function Attrs: mustprogress uwtable
define dso_local noundef float @_ZNK13btConvexShape19getMarginNonVirtualEv(ptr noundef nonnull align 8 dereferenceable(32) %0) local_unnamed_addr #8 align 2 {
  %2 = getelementptr inbounds nuw i8, ptr %0, i64 8
  %3 = load i32, ptr %2, align 8, !tbaa !4
  switch i32 %3, label %28 [
    i32 8, label %4
    i32 0, label %10
    i32 1, label %13
    i32 13, label %16
    i32 11, label %19
    i32 10, label %22
    i32 5, label %25
    i32 4, label %25
  ]

4:                                                ; preds = %1
  %5 = getelementptr inbounds nuw i8, ptr %0, i64 48
  %6 = load float, ptr %5, align 8, !tbaa !15
  %7 = getelementptr inbounds nuw i8, ptr %0, i64 32
  %8 = load float, ptr %7, align 8, !tbaa !15
  %9 = fmul float %6, %8
  br label %33

10:                                               ; preds = %1
  %11 = getelementptr inbounds nuw i8, ptr %0, i64 64
  %12 = load float, ptr %11, align 8, !tbaa !40
  br label %33

13:                                               ; preds = %1
  %14 = getelementptr inbounds nuw i8, ptr %0, i64 64
  %15 = load float, ptr %14, align 8, !tbaa !40
  br label %33

16:                                               ; preds = %1
  %17 = getelementptr inbounds nuw i8, ptr %0, i64 64
  %18 = load float, ptr %17, align 8, !tbaa !40
  br label %33

19:                                               ; preds = %1
  %20 = getelementptr inbounds nuw i8, ptr %0, i64 64
  %21 = load float, ptr %20, align 8, !tbaa !40
  br label %33

22:                                               ; preds = %1
  %23 = getelementptr inbounds nuw i8, ptr %0, i64 64
  %24 = load float, ptr %23, align 8, !tbaa !40
  br label %33

25:                                               ; preds = %1, %1
  %26 = getelementptr inbounds nuw i8, ptr %0, i64 64
  %27 = load float, ptr %26, align 8, !tbaa !40
  br label %33

28:                                               ; preds = %1
  %29 = load ptr, ptr %0, align 8, !tbaa !13
  %30 = getelementptr inbounds nuw i8, ptr %29, i64 96
  %31 = load ptr, ptr %30, align 8
  %32 = tail call noundef float %31(ptr noundef nonnull align 8 dereferenceable(32) %0)
  br label %33

33:                                               ; preds = %28, %25, %22, %19, %16, %13, %10, %4
  %.0 = phi float [ %32, %28 ], [ %27, %25 ], [ %24, %22 ], [ %21, %19 ], [ %18, %16 ], [ %15, %13 ], [ %12, %10 ], [ %9, %4 ]
  ret float %.0
}